target datalayout = "e-m:e-p270:32:32-p271:32:32-p272:64:64-i64:64-i128:128-f80:128-n8:16:32:64-S128"
target triple = "x86_64-pc-linux-gnu"

%struct.SVG_RendererRec_ = type { %struct.FT_RendererRec_, i8, i8, %struct.SVG_RendererHooks_, ptr }
%struct.FT_RendererRec_ = type { %struct.FT_ModuleRec_, ptr, i32, %struct.FT_Glyph_Class_, ptr, ptr, ptr }
%struct.FT_ModuleRec_ = type { ptr, ptr, ptr }
%struct.FT_Glyph_Class_ = type { i64, i32, ptr, ptr, ptr, ptr, ptr, ptr }
%struct.SVG_RendererHooks_ = type { ptr, ptr, ptr, ptr }

; Function Attrs: nounwind uwtable
define internal i32 @ft_svg_preset_slot(ptr noundef %0, ptr noundef %1, i8 noundef zeroext %2) #0 {
  %4 = alloca i32, align 4
  %5 = alloca ptr, align 8
  %6 = alloca ptr, align 8
  %7 = alloca i8, align 1
  %8 = alloca ptr, align 8
  %9 = alloca %struct.SVG_RendererHooks_, align 8
  %10 = alloca i32, align 4
  store ptr %0, ptr %5, align 8, !tbaa !3
  store ptr %1, ptr %6, align 8, !tbaa !31
  store i8 %2, ptr %7, align 1, !tbaa !81
  call void @llvm.lifetime.start.p0(i64 8, ptr %8) #6
  %11 = load ptr, ptr %5, align 8, !tbaa !3
  store ptr %11, ptr %8, align 8, !tbaa !8
  call void @llvm.lifetime.start.p0(i64 32, ptr %9) #6
  %12 = load ptr, ptr %8, align 8, !tbaa !8
  %13 = getelementptr inbounds nuw %struct.SVG_RendererRec_, ptr %12, i32 0, i32 3
  call void @llvm.memcpy.p0.p0.i64(ptr align 8 %9, ptr align 8 %13, i64 32, i1 false), !tbaa.struct !42
  %14 = load ptr, ptr %8, align 8, !tbaa !8
  %15 = getelementptr inbounds nuw %struct.SVG_RendererRec_, ptr %14, i32 0, i32 2
  %16 = load i8, ptr %15, align 1, !tbaa !24
  %17 = zext i8 %16 to i32
  %18 = icmp eq i32 %17, 0
  br i1 %18, label %19, label %23

19:                                               ; preds = %3
  br label %20

20:                                               ; preds = %19
  br label %21

21:                                               ; preds = %20
  br label %22

22:                                               ; preds = %21
  store i32 158, ptr %4, align 4
  store i32 1, ptr %10, align 4
  br label %48

23:                                               ; preds = %3
  %24 = load ptr, ptr %8, align 8, !tbaa !8
  %25 = getelementptr inbounds nuw %struct.SVG_RendererRec_, ptr %24, i32 0, i32 1
  %26 = load i8, ptr %25, align 8, !tbaa !12
  %27 = zext i8 %26 to i32
  %28 = icmp eq i32 %27, 0
  br i1 %28, label %29, label %40

29:                                               ; preds = %23
  br label %30

30:                                               ; preds = %29
  br label %31

31:                                               ; preds = %30
  br label %32

32:                                               ; preds = %31
  %33 = getelementptr inbounds nuw %struct.SVG_RendererHooks_, ptr %9, i32 0, i32 0
  %34 = load ptr, ptr %33, align 8, !tbaa !43
  %35 = load ptr, ptr %8, align 8, !tbaa !8
  %36 = getelementptr inbounds nuw %struct.SVG_RendererRec_, ptr %35, i32 0, i32 4
  %37 = call i32 %34(ptr noundef %36)
  %38 = load ptr, ptr %8, align 8, !tbaa !8
  %39 = getelementptr inbounds nuw %struct.SVG_RendererRec_, ptr %38, i32 0, i32 1
  store i8 1, ptr %39, align 8, !tbaa !12
  br label %40

40:                                               ; preds = %32, %23
  %41 = getelementptr inbounds nuw %struct.SVG_RendererHooks_, ptr %9, i32 0, i32 3
  %42 = load ptr, ptr %41, align 8, !tbaa !82
  %43 = load ptr, ptr %6, align 8, !tbaa !31
  %44 = load i8, ptr %7, align 1, !tbaa !81
  %45 = load ptr, ptr %8, align 8, !tbaa !8
  %46 = getelementptr inbounds nuw %struct.SVG_RendererRec_, ptr %45, i32 0, i32 4
  %47 = call i32 %42(ptr noundef %43, i8 noundef zeroext %44, ptr noundef %46)
  store i32 %47, ptr %4, align 4
  store i32 1, ptr %10, align 4
  br label %48

48:                                               ; preds = %40, %22
  call void @llvm.lifetime.end.p0(i64 32, ptr %9) #6
  call void @llvm.lifetime.end.p0(i64 8, ptr %8) #6
  %49 = load i32, ptr %4, align 4
  ret i32 %49
}