; Function Attrs: nounwind uwtable
define internal i32 @ft_svg_preset_slot(ptr noundef %0, ptr noundef %1, i8 noundef zeroext %2) #1 {
  %4 = getelementptr inbounds nuw i8, ptr %0, i64 136
  %.sroa.0.0.copyload = load ptr, ptr %4, align 8, !tbaa !28
  %.sroa.41.0..sroa_idx = getelementptr inbounds nuw i8, ptr %0, i64 160
  %.sroa.41.0.copyload = load ptr, ptr %.sroa.41.0..sroa_idx, align 8, !tbaa !28
  %5 = getelementptr inbounds nuw i8, ptr %0, i64 129
  %6 = load i8, ptr %5, align 1, !tbaa !19
  %7 = icmp eq i8 %6, 0
  br i1 %7, label %18, label %8

8:                                                ; preds = %3
  %9 = getelementptr inbounds nuw i8, ptr %0, i64 128
  %10 = load i8, ptr %9, align 8, !tbaa !3
  %11 = icmp eq i8 %10, 0
  br i1 %11, label %12, label %15

12:                                               ; preds = %8
  %13 = getelementptr inbounds nuw i8, ptr %0, i64 168
  %14 = tail call i32 %.sroa.0.0.copyload(ptr noundef nonnull %13) #8
  store i8 1, ptr %9, align 8, !tbaa !3
  br label %15

15:                                               ; preds = %12, %8
  %16 = getelementptr inbounds nuw i8, ptr %0, i64 168
  %17 = tail call i32 %.sroa.41.0.copyload(ptr noundef %1, i8 noundef zeroext %2, ptr noundef nonnull %16) #8
  br label %18

18:                                               ; preds = %3, %15
  %.0 = phi i32 [ %17, %15 ], [ 158, %3 ]
  ret i32 %.0
}